target datalayout = "e-m:e-p270:32:32-p271:32:32-p272:64:64-i64:64-i128:128-f80:128-n8:16:32:64-S128"
target triple = "x86_64-pc-linux-gnu"

%struct.TupleTableSlot = type { i32, i16, i16, ptr, ptr, ptr, ptr, ptr, %struct.ItemPointerData, i32 }
%struct.ItemPointerData = type { %struct.BlockIdData, i16 }
%struct.BlockIdData = type { i16, i16 }
%struct.HeapTupleData = type { i32, %struct.ItemPointerData, i32, ptr }
%struct.MinimalTupleTableSlot = type { %struct.TupleTableSlot, ptr, ptr, %struct.HeapTupleData, i32 }
%struct.MinimalTupleData = type { i32, [6 x i8], i16, i16, i8, [0 x i8] }

@CurrentMemoryContext = external global ptr, align 8

; Function Attrs: inlinehint nounwind uwtable
define internal ptr @MemoryContextSwitchTo(ptr noundef %0) #4 {
  %2 = alloca ptr, align 8
  %3 = alloca ptr, align 8
  store ptr %0, ptr %2, align 8
  call void @llvm.lifetime.start.p0(i64 8, ptr %3) #10
  %4 = load ptr, ptr @CurrentMemoryContext, align 8
  store ptr %4, ptr %3, align 8
  %5 = load ptr, ptr %2, align 8
  store ptr %5, ptr @CurrentMemoryContext, align 8
  %6 = load ptr, ptr %3, align 8
  call void @llvm.lifetime.end.p0(i64 8, ptr %3) #10
  ret ptr %6
}

; Function Attrs: nounwind uwtable
define internal void @tts_minimal_materialize(ptr noundef %0) #0 {
  %2 = alloca ptr, align 8
  %3 = alloca ptr, align 8
  %4 = alloca ptr, align 8
  %5 = alloca i32, align 4
  store ptr %0, ptr %2, align 8
  call void @llvm.lifetime.start.p0(i64 8, ptr %3) #10
  %6 = load ptr, ptr %2, align 8
  store ptr %6, ptr %3, align 8
  call void @llvm.lifetime.start.p0(i64 8, ptr %4) #10
  %7 = load ptr, ptr %2, align 8
  %8 = getelementptr inbounds nuw %struct.TupleTableSlot, ptr %7, i32 0, i32 1
  %9 = load i16, ptr %8, align 4
  %10 = zext i16 %9 to i32
  %11 = and i32 %10, 4
  %12 = icmp ne i32 %11, 0
  br i1 %12, label %13, label %14

13:                                               ; preds = %1
  store i32 1, ptr %5, align 4
  br label %74

14:                                               ; preds = %1
  %15 = load ptr, ptr %2, align 8
  %16 = getelementptr inbounds nuw %struct.TupleTableSlot, ptr %15, i32 0, i32 7
  %17 = load ptr, ptr %16, align 8
  %18 = call ptr @MemoryContextSwitchTo(ptr noundef %17)
  store ptr %18, ptr %4, align 8
  %19 = load ptr, ptr %2, align 8
  %20 = getelementptr inbounds nuw %struct.TupleTableSlot, ptr %19, i32 0, i32 2
  store i16 0, ptr %20, align 2
  %21 = load ptr, ptr %3, align 8
  %22 = getelementptr inbounds nuw %struct.MinimalTupleTableSlot, ptr %21, i32 0, i32 4
  store i32 0, ptr %22, align 8
  %23 = load ptr, ptr %3, align 8
  %24 = getelementptr inbounds nuw %struct.MinimalTupleTableSlot, ptr %23, i32 0, i32 2
  %25 = load ptr, ptr %24, align 8
  %26 = icmp ne ptr %25, null
  br i1 %26, label %40, label %27

27:                                               ; preds = %14
  %28 = load ptr, ptr %2, align 8
  %29 = getelementptr inbounds nuw %struct.TupleTableSlot, ptr %28, i32 0, i32 4
  %30 = load ptr, ptr %29, align 8
  %31 = load ptr, ptr %2, align 8
  %32 = getelementptr inbounds nuw %struct.TupleTableSlot, ptr %31, i32 0, i32 5
  %33 = load ptr, ptr %32, align 8
  %34 = load ptr, ptr %2, align 8
  %35 = getelementptr inbounds nuw %struct.TupleTableSlot, ptr %34, i32 0, i32 6
  %36 = load ptr, ptr %35, align 8
  %37 = call ptr @heap_form_minimal_tuple(ptr noundef %30, ptr noundef %33, ptr noundef %36)
  %38 = load ptr, ptr %3, align 8
  %39 = getelementptr inbounds nuw %struct.MinimalTupleTableSlot, ptr %38, i32 0, i32 2
  store ptr %37, ptr %39, align 8
  br label %47

40:                                               ; preds = %14
  %41 = load ptr, ptr %3, align 8
  %42 = getelementptr inbounds nuw %struct.MinimalTupleTableSlot, ptr %41, i32 0, i32 2
  %43 = load ptr, ptr %42, align 8
  %44 = call ptr @heap_copy_minimal_tuple(ptr noundef %43)
  %45 = load ptr, ptr %3, align 8
  %46 = getelementptr inbounds nuw %struct.MinimalTupleTableSlot, ptr %45, i32 0, i32 2
  store ptr %44, ptr %46, align 8
  br label %47

47:                                               ; preds = %40, %27
  %48 = load ptr, ptr %2, align 8
  %49 = getelementptr inbounds nuw %struct.TupleTableSlot, ptr %48, i32 0, i32 1
  %50 = load i16, ptr %49, align 4
  %51 = zext i16 %50 to i32
  %52 = or i32 %51, 4
  %53 = trunc i32 %52 to i16
  store i16 %53, ptr %49, align 4
  %54 = load ptr, ptr %3, align 8
  %55 = getelementptr inbounds nuw %struct.MinimalTupleTableSlot, ptr %54, i32 0, i32 2
  %56 = load ptr, ptr %55, align 8
  %57 = getelementptr inbounds nuw %struct.MinimalTupleData, ptr %56, i32 0, i32 0
  %58 = load i32, ptr %57, align 4
  %59 = zext i32 %58 to i64
  %60 = add i64 %59, 8
  %61 = trunc i64 %60 to i32
  %62 = load ptr, ptr %3, align 8
  %63 = getelementptr inbounds nuw %struct.MinimalTupleTableSlot, ptr %62, i32 0, i32 3
  %64 = getelementptr inbounds nuw %struct.HeapTupleData, ptr %63, i32 0, i32 0
  store i32 %61, ptr %64, align 8
  %65 = load ptr, ptr %3, align 8
  %66 = getelementptr inbounds nuw %struct.MinimalTupleTableSlot, ptr %65, i32 0, i32 2
  %67 = load ptr, ptr %66, align 8
  %68 = getelementptr inbounds i8, ptr %67, i64 -8
  %69 = load ptr, ptr %3, align 8
  %70 = getelementptr inbounds nuw %struct.MinimalTupleTableSlot, ptr %69, i32 0, i32 3
  %71 = getelementptr inbounds nuw %struct.HeapTupleData, ptr %70, i32 0, i32 3
  store ptr %68, ptr %71, align 8
  %72 = load ptr, ptr %4, align 8
  %73 = call ptr @MemoryContextSwitchTo(ptr noundef %72)
  store i32 0, ptr %5, align 4
  br label %74

74:                                               ; preds = %47, %13
  call void @llvm.lifetime.end.p0(i64 8, ptr %4) #10
  call void @llvm.lifetime.end.p0(i64 8, ptr %3) #10
  %75 = load i32, ptr %5, align 4
  switch i32 %75, label %77 [
    i32 0, label %76
    i32 1, label %76
  ]

76:                                               ; preds = %74, %74
  ret void

77:                                               ; preds = %74
  unreachable
}

; Function Attrs: nounwind uwtable
define internal ptr @tts_minimal_copy_minimal_tuple(ptr noundef %0) #0 {
  %2 = alloca ptr, align 8
  %3 = alloca ptr, align 8
  store ptr %0, ptr %2, align 8
  call void @llvm.lifetime.start.p0(i64 8, ptr %3) #10
  %4 = load ptr, ptr %2, align 8
  store ptr %4, ptr %3, align 8
  %5 = load ptr, ptr %3, align 8
  %6 = getelementptr inbounds nuw %struct.MinimalTupleTableSlot, ptr %5, i32 0, i32 2
  %7 = load ptr, ptr %6, align 8
  %8 = icmp ne ptr %7, null
  br i1 %8, label %11, label %9

9:                                                ; preds = %1
  %10 = load ptr, ptr %2, align 8
  call void @tts_minimal_materialize(ptr noundef %10)
  br label %11

11:                                               ; preds = %9, %1
  %12 = load ptr, ptr %3, align 8
  %13 = getelementptr inbounds nuw %struct.MinimalTupleTableSlot, ptr %12, i32 0, i32 2
  %14 = load ptr, ptr %13, align 8
  %15 = call ptr @heap_copy_minimal_tuple(ptr noundef %14)
  call void @llvm.lifetime.end.p0(i64 8, ptr %3) #10
  ret ptr %15
}